target datalayout = "e-m:e-p270:32:32-p271:32:32-p272:64:64-i64:64-i128:128-f80:128-n8:16:32:64-S128"
target triple = "x86_64-pc-linux-gnu"

%struct.Agdesc_s = type { i8, [3 x i8] }
%struct.gmlnode = type { ptr, %struct.attrs_t }
%struct.attrs_t = type { ptr, i64, i64, i64 }
%struct.gmledge = type { ptr, ptr, %struct.attrs_t }
%struct.gmlgraph = type { ptr, i32, %struct.attrs_t, %struct.nodes_t, %struct.edges_t, ptr }
%struct.nodes_t = type { ptr, i64, i64, i64 }
%struct.edges_t = type { ptr, i64, i64, i64 }
%struct.graphs_t = type { ptr, i64, i64, i64 }

@L = internal global ptr null, align 8
@stderr = external global ptr, align 8
@Agdirected = external global %struct.Agdesc_s, align 4
@Agundirected = external global %struct.Agdesc_s, align 4
@.str.45 = private unnamed_addr constant [29 x i8] c"node without an id attribute\00", align 1
@.str.46 = private unnamed_addr constant [33 x i8] c"edge without an source attribute\00", align 1
@.str.47 = private unnamed_addr constant [33 x i8] c"node without an target attribute\00", align 1

; Function Attrs: inlinehint nounwind uwtable
define internal ptr @graphs_get(ptr noundef %0, i64 noundef %1) #1 {
  %3 = alloca ptr, align 8
  %4 = alloca i64, align 8
  store ptr %0, ptr %3, align 8, !tbaa !4
  store i64 %1, ptr %4, align 8, !tbaa !20
  %5 = load ptr, ptr %3, align 8, !tbaa !4
  %6 = getelementptr inbounds nuw %struct.graphs_t, ptr %5, i32 0, i32 0
  %7 = load ptr, ptr %6, align 8, !tbaa !16
  %8 = load ptr, ptr %3, align 8, !tbaa !4
  %9 = getelementptr inbounds nuw %struct.graphs_t, ptr %8, i32 0, i32 1
  %10 = load i64, ptr %9, align 8, !tbaa !66
  %11 = load i64, ptr %4, align 8, !tbaa !20
  %12 = add i64 %10, %11
  %13 = load ptr, ptr %3, align 8, !tbaa !4
  %14 = getelementptr inbounds nuw %struct.graphs_t, ptr %13, i32 0, i32 3
  %15 = load i64, ptr %14, align 8, !tbaa !67
  %16 = urem i64 %12, %15
  %17 = getelementptr inbounds nuw ptr, ptr %7, i64 %16
  %18 = load ptr, ptr %17, align 8, !tbaa !11
  ret ptr %18
}

; Function Attrs: inlinehint nounwind uwtable
define internal i64 @graphs_size(ptr noundef %0) #1 {
  %2 = alloca ptr, align 8
  store ptr %0, ptr %2, align 8, !tbaa !4
  %3 = load ptr, ptr %2, align 8, !tbaa !4
  %4 = getelementptr inbounds nuw %struct.graphs_t, ptr %3, i32 0, i32 2
  %5 = load i64, ptr %4, align 8, !tbaa !64
  ret i64 %5
}

; Function Attrs: inlinehint nounwind uwtable
define internal ptr @edges_get(ptr noundef %0, i64 noundef %1) #1 {
  %3 = alloca ptr, align 8
  %4 = alloca i64, align 8
  store ptr %0, ptr %3, align 8, !tbaa !4
  store i64 %1, ptr %4, align 8, !tbaa !20
  %5 = load ptr, ptr %3, align 8, !tbaa !4
  %6 = getelementptr inbounds nuw %struct.edges_t, ptr %5, i32 0, i32 0
  %7 = load ptr, ptr %6, align 8, !tbaa !8
  %8 = load ptr, ptr %3, align 8, !tbaa !4
  %9 = getelementptr inbounds nuw %struct.edges_t, ptr %8, i32 0, i32 1
  %10 = load i64, ptr %9, align 8, !tbaa !60
  %11 = load i64, ptr %4, align 8, !tbaa !20
  %12 = add i64 %10, %11
  %13 = load ptr, ptr %3, align 8, !tbaa !4
  %14 = getelementptr inbounds nuw %struct.edges_t, ptr %13, i32 0, i32 3
  %15 = load i64, ptr %14, align 8, !tbaa !61
  %16 = urem i64 %12, %15
  %17 = getelementptr inbounds nuw ptr, ptr %7, i64 %16
  %18 = load ptr, ptr %17, align 8, !tbaa !4
  ret ptr %18
}

; Function Attrs: inlinehint nounwind uwtable
define internal i64 @edges_size(ptr noundef %0) #1 {
  %2 = alloca ptr, align 8
  store ptr %0, ptr %2, align 8, !tbaa !4
  %3 = load ptr, ptr %2, align 8, !tbaa !4
  %4 = getelementptr inbounds nuw %struct.edges_t, ptr %3, i32 0, i32 2
  %5 = load i64, ptr %4, align 8, !tbaa !58
  ret i64 %5
}

; Function Attrs: inlinehint nounwind uwtable
define internal ptr @nodes_get(ptr noundef %0, i64 noundef %1) #1 {
  %3 = alloca ptr, align 8
  %4 = alloca i64, align 8
  store ptr %0, ptr %3, align 8, !tbaa !4
  store i64 %1, ptr %4, align 8, !tbaa !20
  %5 = load ptr, ptr %3, align 8, !tbaa !4
  %6 = getelementptr inbounds nuw %struct.nodes_t, ptr %5, i32 0, i32 0
  %7 = load ptr, ptr %6, align 8, !tbaa !8
  %8 = load ptr, ptr %3, align 8, !tbaa !4
  %9 = getelementptr inbounds nuw %struct.nodes_t, ptr %8, i32 0, i32 1
  %10 = load i64, ptr %9, align 8, !tbaa !60
  %11 = load i64, ptr %4, align 8, !tbaa !20
  %12 = add i64 %10, %11
  %13 = load ptr, ptr %3, align 8, !tbaa !4
  %14 = getelementptr inbounds nuw %struct.nodes_t, ptr %13, i32 0, i32 3
  %15 = load i64, ptr %14, align 8, !tbaa !61
  %16 = urem i64 %12, %15
  %17 = getelementptr inbounds nuw ptr, ptr %7, i64 %16
  %18 = load ptr, ptr %17, align 8, !tbaa !4
  ret ptr %18
}

; Function Attrs: inlinehint nounwind uwtable
define internal i64 @nodes_size(ptr noundef %0) #1 {
  %2 = alloca ptr, align 8
  store ptr %0, ptr %2, align 8, !tbaa !4
  %3 = load ptr, ptr %2, align 8, !tbaa !4
  %4 = getelementptr inbounds nuw %struct.nodes_t, ptr %3, i32 0, i32 2
  %5 = load i64, ptr %4, align 8, !tbaa !58
  ret i64 %5
}

; Function Attrs: nounwind uwtable
define internal ptr @mkGraph(ptr noundef %0, ptr noundef %1, ptr noundef %2, ptr noundef %3, ptr noundef %4) #0 {
  %6 = alloca ptr, align 8
  %7 = alloca ptr, align 8
  %8 = alloca ptr, align 8
  %9 = alloca ptr, align 8
  %10 = alloca ptr, align 8
  %11 = alloca ptr, align 8
  %12 = alloca ptr, align 8
  %13 = alloca ptr, align 8
  %14 = alloca ptr, align 8
  %15 = alloca i64, align 8
  %16 = alloca ptr, align 8
  %17 = alloca i64, align 8
  %18 = alloca ptr, align 8
  %19 = alloca i64, align 8
  %20 = alloca ptr, align 8
  store ptr %0, ptr %6, align 8, !tbaa !11
  store ptr %1, ptr %7, align 8, !tbaa !49
  store ptr %2, ptr %8, align 8, !tbaa !21
  store ptr %3, ptr %9, align 8, !tbaa !4
  store ptr %4, ptr %10, align 8, !tbaa !4
  call void @llvm.lifetime.start.p0(i64 8, ptr %11) #15
  call void @llvm.lifetime.start.p0(i64 8, ptr %12) #15
  call void @llvm.lifetime.start.p0(i64 8, ptr %13) #15
  call void @llvm.lifetime.start.p0(i64 8, ptr %14) #15
  %21 = load ptr, ptr %7, align 8, !tbaa !49
  %22 = icmp ne ptr %21, null
  br i1 %22, label %23, label %26

23:                                               ; preds = %5
  %24 = load ptr, ptr %7, align 8, !tbaa !49
  %25 = call ptr @agsubg(ptr noundef %24, ptr noundef null, i32 noundef 1)
  store ptr %25, ptr %11, align 8, !tbaa !49
  br label %40

26:                                               ; preds = %5
  %27 = load ptr, ptr %6, align 8, !tbaa !11
  %28 = getelementptr inbounds nuw %struct.gmlgraph, ptr %27, i32 0, i32 1
  %29 = load i32, ptr %28, align 8, !tbaa !39
  %30 = icmp sge i32 %29, 1
  br i1 %30, label %31, label %35

31:                                               ; preds = %26
  %32 = load ptr, ptr %8, align 8, !tbaa !21
  %33 = load i32, ptr @Agdirected, align 4
  %34 = call ptr @agopen(ptr noundef %32, i32 %33, ptr noundef null)
  store ptr %34, ptr %11, align 8, !tbaa !49
  br label %39

35:                                               ; preds = %26
  %36 = load ptr, ptr %8, align 8, !tbaa !21
  %37 = load i32, ptr @Agundirected, align 4
  %38 = call ptr @agopen(ptr noundef %36, i32 %37, ptr noundef null)
  store ptr %38, ptr %11, align 8, !tbaa !49
  br label %39

39:                                               ; preds = %35, %31
  br label %40

40:                                               ; preds = %39, %23
  %41 = load ptr, ptr %7, align 8, !tbaa !49
  %42 = icmp ne ptr %41, null
  br i1 %42, label %51, label %43

43:                                               ; preds = %40
  %44 = load ptr, ptr @L, align 8, !tbaa !4
  %45 = icmp ne ptr %44, null
  br i1 %45, label %46, label %51

46:                                               ; preds = %43
  %47 = load ptr, ptr %11, align 8, !tbaa !49
  %48 = load ptr, ptr @L, align 8, !tbaa !4
  %49 = load ptr, ptr %9, align 8, !tbaa !4
  %50 = load ptr, ptr %10, align 8, !tbaa !4
  call void @addAttrs(ptr noundef %47, ptr noundef %48, ptr noundef %49, ptr noundef %50)
  br label %51

51:                                               ; preds = %46, %43, %40
  call void @llvm.lifetime.start.p0(i64 8, ptr %15) #15
  store i64 0, ptr %15, align 8, !tbaa !20
  br label %52

52:                                               ; preds = %82, %51
  %53 = load i64, ptr %15, align 8, !tbaa !20
  %54 = load ptr, ptr %6, align 8, !tbaa !11
  %55 = getelementptr inbounds nuw %struct.gmlgraph, ptr %54, i32 0, i32 3
  %56 = call i64 @nodes_size(ptr noundef %55)
  %57 = icmp ult i64 %53, %56
  br i1 %57, label %59, label %58

58:                                               ; preds = %52
  call void @llvm.lifetime.end.p0(i64 8, ptr %15) #15
  br label %85

59:                                               ; preds = %52
  call void @llvm.lifetime.start.p0(i64 8, ptr %16) #15
  %60 = load ptr, ptr %6, align 8, !tbaa !11
  %61 = getelementptr inbounds nuw %struct.gmlgraph, ptr %60, i32 0, i32 3
  %62 = load i64, ptr %15, align 8, !tbaa !20
  %63 = call ptr @nodes_get(ptr noundef %61, i64 noundef %62)
  store ptr %63, ptr %16, align 8, !tbaa !4
  %64 = load ptr, ptr %16, align 8, !tbaa !4
  %65 = getelementptr inbounds nuw %struct.gmlnode, ptr %64, i32 0, i32 0
  %66 = load ptr, ptr %65, align 8, !tbaa !32
  %67 = icmp ne ptr %66, null
  br i1 %67, label %71, label %68

68:                                               ; preds = %59
  %69 = load ptr, ptr @stderr, align 8, !tbaa !40
  %70 = call i32 (ptr, ptr, ...) @fprintf(ptr noundef %69, ptr noundef @.str.45) #15
  call void @graphviz_exit(i32 noundef 1) #17
  unreachable

71:                                               ; preds = %59
  %72 = load ptr, ptr %11, align 8, !tbaa !49
  %73 = load ptr, ptr %16, align 8, !tbaa !4
  %74 = getelementptr inbounds nuw %struct.gmlnode, ptr %73, i32 0, i32 0
  %75 = load ptr, ptr %74, align 8, !tbaa !32
  %76 = call ptr @agnode(ptr noundef %72, ptr noundef %75, i32 noundef 1)
  store ptr %76, ptr %12, align 8, !tbaa !51
  %77 = load ptr, ptr %12, align 8, !tbaa !51
  %78 = load ptr, ptr %16, align 8, !tbaa !4
  %79 = getelementptr inbounds nuw %struct.gmlnode, ptr %78, i32 0, i32 1
  %80 = load ptr, ptr %9, align 8, !tbaa !4
  %81 = load ptr, ptr %10, align 8, !tbaa !4
  call void @addAttrs(ptr noundef %77, ptr noundef %79, ptr noundef %80, ptr noundef %81)
  call void @llvm.lifetime.end.p0(i64 8, ptr %16) #15
  br label %82

82:                                               ; preds = %71
  %83 = load i64, ptr %15, align 8, !tbaa !20
  %84 = add i64 %83, 1
  store i64 %84, ptr %15, align 8, !tbaa !20
  br label %52, !llvm.loop !53

85:                                               ; preds = %58
  call void @llvm.lifetime.start.p0(i64 8, ptr %17) #15
  store i64 0, ptr %17, align 8, !tbaa !20
  br label %86

86:                                               ; preds = %133, %85
  %87 = load i64, ptr %17, align 8, !tbaa !20
  %88 = load ptr, ptr %6, align 8, !tbaa !11
  %89 = getelementptr inbounds nuw %struct.gmlgraph, ptr %88, i32 0, i32 4
  %90 = call i64 @edges_size(ptr noundef %89)
  %91 = icmp ult i64 %87, %90
  br i1 %91, label %93, label %92

92:                                               ; preds = %86
  call void @llvm.lifetime.end.p0(i64 8, ptr %17) #15
  br label %136

93:                                               ; preds = %86
  call void @llvm.lifetime.start.p0(i64 8, ptr %18) #15
  %94 = load ptr, ptr %6, align 8, !tbaa !11
  %95 = getelementptr inbounds nuw %struct.gmlgraph, ptr %94, i32 0, i32 4
  %96 = load i64, ptr %17, align 8, !tbaa !20
  %97 = call ptr @edges_get(ptr noundef %95, i64 noundef %96)
  store ptr %97, ptr %18, align 8, !tbaa !4
  %98 = load ptr, ptr %18, align 8, !tbaa !4
  %99 = getelementptr inbounds nuw %struct.gmledge, ptr %98, i32 0, i32 0
  %100 = load ptr, ptr %99, align 8, !tbaa !34
  %101 = icmp ne ptr %100, null
  br i1 %101, label %105, label %102

102:                                              ; preds = %93
  %103 = load ptr, ptr @stderr, align 8, !tbaa !40
  %104 = call i32 (ptr, ptr, ...) @fprintf(ptr noundef %103, ptr noundef @.str.46) #15
  call void @graphviz_exit(i32 noundef 1) #17
  unreachable

105:                                              ; preds = %93
  %106 = load ptr, ptr %18, align 8, !tbaa !4
  %107 = getelementptr inbounds nuw %struct.gmledge, ptr %106, i32 0, i32 1
  %108 = load ptr, ptr %107, align 8, !tbaa !36
  %109 = icmp ne ptr %108, null
  br i1 %109, label %113, label %110

110:                                              ; preds = %105
  %111 = load ptr, ptr @stderr, align 8, !tbaa !40
  %112 = call i32 (ptr, ptr, ...) @fprintf(ptr noundef %111, ptr noundef @.str.47) #15
  call void @graphviz_exit(i32 noundef 1) #17
  unreachable

113:                                              ; preds = %105
  %114 = load ptr, ptr %11, align 8, !tbaa !49
  %115 = load ptr, ptr %18, align 8, !tbaa !4
  %116 = getelementptr inbounds nuw %struct.gmledge, ptr %115, i32 0, i32 0
  %117 = load ptr, ptr %116, align 8, !tbaa !34
  %118 = call ptr @agnode(ptr noundef %114, ptr noundef %117, i32 noundef 1)
  store ptr %118, ptr %12, align 8, !tbaa !51
  %119 = load ptr, ptr %11, align 8, !tbaa !49
  %120 = load ptr, ptr %18, align 8, !tbaa !4
  %121 = getelementptr inbounds nuw %struct.gmledge, ptr %120, i32 0, i32 1
  %122 = load ptr, ptr %121, align 8, !tbaa !36
  %123 = call ptr @agnode(ptr noundef %119, ptr noundef %122, i32 noundef 1)
  store ptr %123, ptr %13, align 8, !tbaa !51
  %124 = load ptr, ptr %11, align 8, !tbaa !49
  %125 = load ptr, ptr %12, align 8, !tbaa !51
  %126 = load ptr, ptr %13, align 8, !tbaa !51
  %127 = call ptr @agedge(ptr noundef %124, ptr noundef %125, ptr noundef %126, ptr noundef null, i32 noundef 1)
  store ptr %127, ptr %14, align 8, !tbaa !54
  %128 = load ptr, ptr %14, align 8, !tbaa !54
  %129 = load ptr, ptr %18, align 8, !tbaa !4
  %130 = getelementptr inbounds nuw %struct.gmledge, ptr %129, i32 0, i32 2
  %131 = load ptr, ptr %9, align 8, !tbaa !4
  %132 = load ptr, ptr %10, align 8, !tbaa !4
  call void @addAttrs(ptr noundef %128, ptr noundef %130, ptr noundef %131, ptr noundef %132)
  call void @llvm.lifetime.end.p0(i64 8, ptr %18) #15
  br label %133

133:                                              ; preds = %113
  %134 = load i64, ptr %17, align 8, !tbaa !20
  %135 = add i64 %134, 1
  store i64 %135, ptr %17, align 8, !tbaa !20
  br label %86, !llvm.loop !56

136:                                              ; preds = %92
  call void @llvm.lifetime.start.p0(i64 8, ptr %19) #15
  store i64 0, ptr %19, align 8, !tbaa !20
  br label %137

137:                                              ; preds = %156, %136
  %138 = load i64, ptr %19, align 8, !tbaa !20
  %139 = load ptr, ptr %6, align 8, !tbaa !11
  %140 = getelementptr inbounds nuw %struct.gmlgraph, ptr %139, i32 0, i32 5
  %141 = load ptr, ptr %140, align 8, !tbaa !13
  %142 = call i64 @graphs_size(ptr noundef %141)
  %143 = icmp ult i64 %138, %142
  br i1 %143, label %145, label %144

144:                                              ; preds = %137
  call void @llvm.lifetime.end.p0(i64 8, ptr %19) #15
  br label %159

145:                                              ; preds = %137
  call void @llvm.lifetime.start.p0(i64 8, ptr %20) #15
  %146 = load ptr, ptr %6, align 8, !tbaa !11
  %147 = getelementptr inbounds nuw %struct.gmlgraph, ptr %146, i32 0, i32 5
  %148 = load ptr, ptr %147, align 8, !tbaa !13
  %149 = load i64, ptr %19, align 8, !tbaa !20
  %150 = call ptr @graphs_get(ptr noundef %148, i64 noundef %149)
  store ptr %150, ptr %20, align 8, !tbaa !11
  %151 = load ptr, ptr %20, align 8, !tbaa !11
  %152 = load ptr, ptr %11, align 8, !tbaa !49
  %153 = load ptr, ptr %9, align 8, !tbaa !4
  %154 = load ptr, ptr %10, align 8, !tbaa !4
  %155 = call ptr @mkGraph(ptr noundef %151, ptr noundef %152, ptr noundef null, ptr noundef %153, ptr noundef %154)
  call void @llvm.lifetime.end.p0(i64 8, ptr %20) #15
  br label %156

156:                                              ; preds = %145
  %157 = load i64, ptr %19, align 8, !tbaa !20
  %158 = add i64 %157, 1
  store i64 %158, ptr %19, align 8, !tbaa !20
  br label %137, !llvm.loop !57

159:                                              ; preds = %144
  %160 = load ptr, ptr %11, align 8, !tbaa !49
  %161 = load ptr, ptr %6, align 8, !tbaa !11
  %162 = getelementptr inbounds nuw %struct.gmlgraph, ptr %161, i32 0, i32 2
  %163 = load ptr, ptr %9, align 8, !tbaa !4
  %164 = load ptr, ptr %10, align 8, !tbaa !4
  call void @addAttrs(ptr noundef %160, ptr noundef %162, ptr noundef %163, ptr noundef %164)
  %165 = load ptr, ptr %11, align 8, !tbaa !49
  call void @llvm.lifetime.end.p0(i64 8, ptr %14) #15
  call void @llvm.lifetime.end.p0(i64 8, ptr %13) #15
  call void @llvm.lifetime.end.p0(i64 8, ptr %12) #15
  call void @llvm.lifetime.end.p0(i64 8, ptr %11) #15
  ret ptr %165
}