; Function Attrs: nounwind uwtable
define internal fastcc ptr @mkGraph(ptr noundef readonly captures(none) %0, ptr noundef %1, ptr noundef %2, ptr noundef nonnull %3, ptr noundef nonnull %4) unnamed_addr #0 {
  %.not = icmp eq ptr %1, null
  br i1 %.not, label %7, label %.thread

.thread:                                          ; preds = %5
  %6 = tail call ptr @agsubg(ptr noundef nonnull %1, ptr noundef null, i32 noundef 1) #20
  br label %15

7:                                                ; preds = %5
  %8 = getelementptr inbounds nuw i8, ptr %0, i64 8
  %9 = load i32, ptr %8, align 8, !tbaa !41
  %10 = icmp sgt i32 %9, 0
  %Agdirected.val = load i32, ptr @Agdirected, align 4
  %Agundirected.val = load i32, ptr @Agundirected, align 4
  %11 = select i1 %10, i32 %Agdirected.val, i32 %Agundirected.val
  %12 = tail call ptr @agopen(ptr noundef %2, i32 %11, ptr noundef null) #20
  %13 = load ptr, ptr @L, align 8
  %.not68 = icmp eq ptr %13, null
  br i1 %.not68, label %15, label %14

14:                                               ; preds = %7
  tail call fastcc void @addAttrs(ptr noundef %12, ptr noundef nonnull %13, ptr noundef %3, ptr noundef %4)
  br label %15

15:                                               ; preds = %.thread, %14, %7
  %.067 = phi ptr [ %6, %.thread ], [ %12, %14 ], [ %12, %7 ]
  %16 = getelementptr i8, ptr %0, i64 64
  %.val70 = load i64, ptr %16, align 8, !tbaa !4
  %.not78 = icmp eq i64 %.val70, 0
  br i1 %.not78, label %.preheader69, label %.lr.ph

.lr.ph:                                           ; preds = %15
  %17 = getelementptr inbounds nuw i8, ptr %0, i64 48
  %18 = getelementptr inbounds nuw i8, ptr %0, i64 56
  %19 = getelementptr inbounds nuw i8, ptr %0, i64 72
  br label %24

.preheader69:                                     ; preds = %36, %15
  %20 = getelementptr i8, ptr %0, i64 96
  %.val6372 = load i64, ptr %20, align 8, !tbaa !4
  %.not79 = icmp eq i64 %.val6372, 0
  br i1 %.not79, label %.preheader, label %.lr.ph74

.lr.ph74:                                         ; preds = %.preheader69
  %21 = getelementptr inbounds nuw i8, ptr %0, i64 80
  %22 = getelementptr inbounds nuw i8, ptr %0, i64 88
  %23 = getelementptr inbounds nuw i8, ptr %0, i64 104
  br label %44

24:                                               ; preds = %.lr.ph, %36
  %.05571 = phi i64 [ 0, %.lr.ph ], [ %39, %36 ]
  %25 = load ptr, ptr %17, align 8, !tbaa !10
  %26 = load i64, ptr %18, align 8, !tbaa !11
  %27 = add i64 %26, %.05571
  %28 = load i64, ptr %19, align 8, !tbaa !12
  %29 = urem i64 %27, %28
  %30 = getelementptr inbounds nuw ptr, ptr %25, i64 %29
  %31 = load ptr, ptr %30, align 8, !tbaa !13
  %32 = load ptr, ptr %31, align 8, !tbaa !44
  %.not62 = icmp eq ptr %32, null
  br i1 %.not62, label %33, label %36

33:                                               ; preds = %24
  %34 = load ptr, ptr @stderr, align 8, !tbaa !39
  %35 = tail call i64 @fwrite(ptr nonnull @.str.45, i64 28, i64 1, ptr %34) #27
  tail call fastcc void @graphviz_exit() #24
  unreachable

36:                                               ; preds = %24
  %37 = tail call ptr @agnode(ptr noundef %.067, ptr noundef nonnull %32, i32 noundef 1) #20
  %38 = getelementptr inbounds nuw i8, ptr %31, i64 8
  tail call fastcc void @addAttrs(ptr noundef %37, ptr noundef nonnull %38, ptr noundef %3, ptr noundef %4)
  %39 = add nuw i64 %.05571, 1
  %.val = load i64, ptr %16, align 8, !tbaa !4
  %40 = icmp ult i64 %39, %.val
  br i1 %40, label %24, label %.preheader69, !llvm.loop !50

.preheader:                                       ; preds = %62, %.preheader69
  %41 = getelementptr inbounds nuw i8, ptr %0, i64 112
  %42 = load ptr, ptr %41, align 8, !tbaa !24
  %43 = getelementptr i8, ptr %42, i64 16
  %.val6475 = load i64, ptr %43, align 8, !tbaa !28
  %.not80 = icmp eq i64 %.val6475, 0
  br i1 %.not80, label %._crit_edge, label %.lr.ph77

44:                                               ; preds = %.lr.ph74, %62
  %.05473 = phi i64 [ 0, %.lr.ph74 ], [ %68, %62 ]
  %45 = load ptr, ptr %21, align 8, !tbaa !10
  %46 = load i64, ptr %22, align 8, !tbaa !11
  %47 = add i64 %46, %.05473
  %48 = load i64, ptr %23, align 8, !tbaa !12
  %49 = urem i64 %47, %48
  %50 = getelementptr inbounds nuw ptr, ptr %45, i64 %49
  %51 = load ptr, ptr %50, align 8, !tbaa !13
  %52 = load ptr, ptr %51, align 8, !tbaa !46
  %.not60 = icmp eq ptr %52, null
  br i1 %.not60, label %53, label %56

53:                                               ; preds = %44
  %54 = load ptr, ptr @stderr, align 8, !tbaa !39
  %55 = tail call i64 @fwrite(ptr nonnull @.str.46, i64 32, i64 1, ptr %54) #27
  tail call fastcc void @graphviz_exit() #24
  unreachable

56:                                               ; preds = %44
  %57 = getelementptr inbounds nuw i8, ptr %51, i64 8
  %58 = load ptr, ptr %57, align 8, !tbaa !48
  %.not61 = icmp eq ptr %58, null
  br i1 %.not61, label %59, label %62

59:                                               ; preds = %56
  %60 = load ptr, ptr @stderr, align 8, !tbaa !39
  %61 = tail call i64 @fwrite(ptr nonnull @.str.47, i64 32, i64 1, ptr %60) #27
  tail call fastcc void @graphviz_exit() #24
  unreachable

62:                                               ; preds = %56
  %63 = tail call ptr @agnode(ptr noundef %.067, ptr noundef nonnull %52, i32 noundef 1) #20
  %64 = load ptr, ptr %57, align 8, !tbaa !48
  %65 = tail call ptr @agnode(ptr noundef %.067, ptr noundef %64, i32 noundef 1) #20
  %66 = tail call ptr @agedge(ptr noundef %.067, ptr noundef %63, ptr noundef %65, ptr noundef null, i32 noundef 1) #20
  %67 = getelementptr inbounds nuw i8, ptr %51, i64 16
  tail call fastcc void @addAttrs(ptr noundef %66, ptr noundef nonnull %67, ptr noundef %3, ptr noundef %4)
  %68 = add nuw i64 %.05473, 1
  %.val63 = load i64, ptr %20, align 8, !tbaa !4
  %69 = icmp ult i64 %68, %.val63
  br i1 %69, label %44, label %.preheader, !llvm.loop !51

._crit_edge:                                      ; preds = %.lr.ph77, %.preheader
  %70 = getelementptr inbounds nuw i8, ptr %0, i64 16
  tail call fastcc void @addAttrs(ptr noundef %.067, ptr noundef nonnull %70, ptr noundef %3, ptr noundef %4)
  ret ptr %.067

.lr.ph77:                                         ; preds = %.preheader, %.lr.ph77
  %71 = phi ptr [ %83, %.lr.ph77 ], [ %42, %.preheader ]
  %.05376 = phi i64 [ %82, %.lr.ph77 ], [ 0, %.preheader ]
  %72 = load ptr, ptr %71, align 8, !tbaa !31
  %73 = getelementptr inbounds nuw i8, ptr %71, i64 8
  %74 = load i64, ptr %73, align 8, !tbaa !32
  %75 = add i64 %74, %.05376
  %76 = getelementptr inbounds nuw i8, ptr %71, i64 24
  %77 = load i64, ptr %76, align 8, !tbaa !33
  %78 = urem i64 %75, %77
  %79 = getelementptr inbounds nuw ptr, ptr %72, i64 %78
  %80 = load ptr, ptr %79, align 8, !tbaa !34
  %81 = tail call fastcc ptr @mkGraph(ptr noundef %80, ptr noundef %.067, ptr noundef null, ptr noundef %3, ptr noundef %4)
  %82 = add nuw i64 %.05376, 1
  %83 = load ptr, ptr %41, align 8, !tbaa !24
  %84 = getelementptr i8, ptr %83, i64 16
  %.val64 = load i64, ptr %84, align 8, !tbaa !28
  %85 = icmp ult i64 %82, %.val64
  br i1 %85, label %.lr.ph77, label %._crit_edge, !llvm.loop !52
}